; Function Attrs: mustprogress uwtable
define hidden void @_ZN2cv15cvtColorHSV2BGRERKNS_11_InputArrayERKNS_12_OutputArrayEibb(ptr noundef nonnull align 8 dereferenceable(24) %0, ptr noundef nonnull align 8 dereferenceable(24) %1, i32 noundef %2, i1 noundef zeroext %3, i1 noundef zeroext %4) local_unnamed_addr #0 personality ptr @__gxx_personality_v0 {
  %6 = alloca %"class.cv::utils::trace::details::Region", align 8
  %7 = alloca %"struct.cv::impl::(anonymous namespace)::CvtHelper.0", align 8
  %8 = icmp slt i32 %2, 1
  %spec.store.select = select i1 %8, i32 3, i32 %2
  call fastcc void @_ZN2cv4impl12_GLOBAL__N_19CvtHelperINS1_3SetILi3ELin1ELin1EEENS3_ILi3ELi4ELin1EEENS3_ILi0ELi5ELin1EEELNS1_10SizePolicyE4EEC2ERKNS_11_InputArrayERKNS_12_OutputArrayEi(ptr noundef nonnull align 8 dereferenceable(208) %7, ptr noundef nonnull align 8 dereferenceable(24) %0, ptr noundef nonnull align 8 dereferenceable(24) %1, i32 noundef %spec.store.select)
  %9 = getelementptr inbounds i8, ptr %7, i64 16
  %10 = load ptr, ptr %9, align 8
  %11 = getelementptr inbounds i8, ptr %7, i64 80
  %12 = load i64, ptr %11, align 8
  %13 = getelementptr inbounds i8, ptr %7, i64 112
  %14 = load ptr, ptr %13, align 8
  %15 = getelementptr inbounds i8, ptr %7, i64 176
  %16 = load i64, ptr %15, align 8
  %17 = getelementptr inbounds i8, ptr %7, i64 12
  %18 = load i32, ptr %17, align 4
  %19 = getelementptr inbounds i8, ptr %7, i64 8
  %20 = load i32, ptr %19, align 8
  %21 = getelementptr inbounds i8, ptr %7, i64 192
  %22 = load i32, ptr %21, align 8
  call void @llvm.lifetime.start.p0(i64 16, ptr nonnull %6)
  invoke void @_ZN2cv5utils5trace7details6RegionC1ERKNS3_21LocationStaticStorageE(ptr noundef nonnull align 8 dereferenceable(12) %6, ptr noundef nonnull align 8 dereferenceable(32) @_ZZN2cv3hal11cvtHSVtoBGREPKhmPhmiiiibbbE25__cv_trace_location_fn136)
          to label %.noexc unwind label %34

.noexc:                                           ; preds = %5
  invoke void @_ZN2cv3hal12cpu_baseline11cvtHSVtoBGREPKhmPhmiiiibbb(ptr noundef %10, i64 noundef %12, ptr noundef %14, i64 noundef %16, i32 noundef %18, i32 noundef %20, i32 noundef %22, i32 noundef %spec.store.select, i1 noundef zeroext %3, i1 noundef zeroext %4, i1 noundef zeroext true)
          to label %23 unwind label %30

23:                                               ; preds = %.noexc
  %24 = getelementptr inbounds i8, ptr %6, i64 8
  %25 = load i32, ptr %24, align 8
  %.not.i.i = icmp eq i32 %25, 0
  br i1 %.not.i.i, label %32, label %26

26:                                               ; preds = %23
  invoke void @_ZN2cv5utils5trace7details6Region7destroyEv(ptr noundef nonnull align 8 dereferenceable(12) %6)
          to label %32 unwind label %27

27:                                               ; preds = %26
  %28 = landingpad { ptr, i32 }
          catch ptr null
  %29 = extractvalue { ptr, i32 } %28, 0
  call void @__clang_call_terminate(ptr %29) #15
  unreachable

30:                                               ; preds = %.noexc
  %31 = landingpad { ptr, i32 }
          cleanup
  call void @_ZN2cv5utils5trace7details6RegionD2Ev(ptr noundef nonnull align 8 dereferenceable(12) %6) #14
  br label %.body

32:                                               ; preds = %26, %23
  call void @llvm.lifetime.end.p0(i64 16, ptr nonnull %6)
  %33 = getelementptr inbounds i8, ptr %7, i64 96
  call void @_ZN2cv3MatD1Ev(ptr noundef nonnull align 8 dereferenceable(96) %33) #14
  call void @_ZN2cv3MatD1Ev(ptr noundef nonnull align 8 dereferenceable(96) %7) #14
  ret void

34:                                               ; preds = %5
  %35 = landingpad { ptr, i32 }
          cleanup
  br label %.body

.body:                                            ; preds = %30, %34
  %eh.lpad-body = phi { ptr, i32 } [ %35, %34 ], [ %31, %30 ]
  %36 = getelementptr inbounds i8, ptr %7, i64 96
  call void @_ZN2cv3MatD1Ev(ptr noundef nonnull align 8 dereferenceable(96) %36) #14
  call void @_ZN2cv3MatD1Ev(ptr noundef nonnull align 8 dereferenceable(96) %7) #14
  resume { ptr, i32 } %eh.lpad-body
}